target datalayout = "e-m:e-p270:32:32-p271:32:32-p272:64:64-i64:64-i128:128-f80:128-n8:16:32:64-S128"
target triple = "x86_64-pc-linux-gnu"

; Function Attrs: nounwind uwtable
define internal i32 @sys_get_coroutine_origin_tracking_depth_impl(ptr noundef %0) #0 {
  %2 = alloca ptr, align 8
  store ptr %0, ptr %2, align 8, !tbaa !9
  %3 = call i32 @_PyEval_GetCoroutineOriginTrackingDepth()
  ret i32 %3
}

; Function Attrs: nounwind uwtable
define internal ptr @sys_get_coroutine_origin_tracking_depth(ptr noundef %0, ptr noundef %1) #0 {
  %3 = alloca ptr, align 8
  %4 = alloca ptr, align 8
  %5 = alloca ptr, align 8
  %6 = alloca i32, align 4
  store ptr %0, ptr %3, align 8, !tbaa !9
  store ptr %1, ptr %4, align 8, !tbaa !9
  call void @llvm.lifetime.start.p0(i64 8, ptr %5) #12
  store ptr null, ptr %5, align 8, !tbaa !9
  call void @llvm.lifetime.start.p0(i64 4, ptr %6) #12
  %7 = load ptr, ptr %3, align 8, !tbaa !9
  %8 = call i32 @sys_get_coroutine_origin_tracking_depth_impl(ptr noundef %7)
  store i32 %8, ptr %6, align 4, !tbaa !97
  %9 = load i32, ptr %6, align 4, !tbaa !97
  %10 = icmp eq i32 %9, -1
  br i1 %10, label %11, label %15

11:                                               ; preds = %2
  %12 = call ptr @PyErr_Occurred()
  %13 = icmp ne ptr %12, null
  br i1 %13, label %14, label %15

14:                                               ; preds = %11
  br label %19

15:                                               ; preds = %11, %2
  %16 = load i32, ptr %6, align 4, !tbaa !97
  %17 = sext i32 %16 to i64
  %18 = call ptr @PyLong_FromLong(i64 noundef %17)
  store ptr %18, ptr %5, align 8, !tbaa !9
  br label %19

19:                                               ; preds = %15, %14
  %20 = load ptr, ptr %5, align 8, !tbaa !9
  call void @llvm.lifetime.end.p0(i64 4, ptr %6) #12
  call void @llvm.lifetime.end.p0(i64 8, ptr %5) #12
  ret ptr %20
}